; Function Attrs: nounwind uwtable
define dso_local void @int_shl64(ptr dead_on_unwind noalias writable writeonly sret(%struct.Int) align 8 captures(none) initializes((0, 20)) %0, ptr noundef readonly byval(%struct.Int) align 8 captures(none) %1, i64 noundef %2) local_unnamed_addr #0 {
  %4 = getelementptr inbounds nuw i8, ptr %1, i64 16
  %5 = load i32, ptr %4, align 8
  %6 = add i32 %5, -8
  %7 = icmp ult i32 %6, 5
  %8 = load i64, ptr %1, align 8
  %9 = getelementptr inbounds nuw i8, ptr %1, i64 8
  %10 = load i64, ptr %9, align 8
  %11 = icmp eq i64 %2, 0
  br i1 %7, label %12, label %29

12:                                               ; preds = %3
  br i1 %11, label %i128_shl64.exit, label %13

13:                                               ; preds = %12
  %14 = icmp ugt i64 %2, 127
  br i1 %14, label %i128_shl64.exit, label %15

15:                                               ; preds = %13
  %16 = icmp eq i64 %2, 64
  br i1 %16, label %i128_shl64.exit, label %17

17:                                               ; preds = %15
  %18 = icmp samesign ugt i64 %2, 64
  br i1 %18, label %19, label %22

19:                                               ; preds = %17
  %20 = add nsw i64 %2, -64
  %21 = shl i64 %10, %20
  br label %i128_shl64.exit

22:                                               ; preds = %17
  %23 = shl i64 %8, %2
  %24 = sub nuw nsw i64 64, %2
  %25 = lshr i64 %10, %24
  %26 = or disjoint i64 %25, %23
  %27 = shl i64 %10, %2
  br label %i128_shl64.exit

i128_shl64.exit:                                  ; preds = %12, %13, %15, %19, %22
  %.sroa.011.0.i = phi i64 [ %21, %19 ], [ %26, %22 ], [ %8, %12 ], [ 0, %13 ], [ %10, %15 ]
  %.sroa.6.0.i = phi i64 [ 0, %19 ], [ %27, %22 ], [ %10, %12 ], [ 0, %13 ], [ 0, %15 ]
  %28 = tail call { i64, i64 } @i128_extend(i64 %.sroa.011.0.i, i64 %.sroa.6.0.i, i32 noundef %5)
  br label %46

29:                                               ; preds = %3
  br i1 %11, label %i128_shl64.exit10, label %30

30:                                               ; preds = %29
  %31 = icmp ugt i64 %2, 127
  br i1 %31, label %i128_shl64.exit10, label %32

32:                                               ; preds = %30
  %33 = icmp eq i64 %2, 64
  br i1 %33, label %i128_shl64.exit10, label %34

34:                                               ; preds = %32
  %35 = icmp samesign ugt i64 %2, 64
  br i1 %35, label %36, label %39

36:                                               ; preds = %34
  %37 = add nsw i64 %2, -64
  %38 = shl i64 %10, %37
  br label %i128_shl64.exit10

39:                                               ; preds = %34
  %40 = shl i64 %8, %2
  %41 = sub nuw nsw i64 64, %2
  %42 = lshr i64 %10, %41
  %43 = or disjoint i64 %42, %40
  %44 = shl i64 %10, %2
  br label %i128_shl64.exit10

i128_shl64.exit10:                                ; preds = %29, %30, %32, %36, %39
  %.sroa.011.0.i6 = phi i64 [ %38, %36 ], [ %43, %39 ], [ %8, %29 ], [ 0, %30 ], [ %10, %32 ]
  %.sroa.6.0.i7 = phi i64 [ 0, %36 ], [ %44, %39 ], [ %10, %29 ], [ 0, %30 ], [ 0, %32 ]
  %45 = tail call { i64, i64 } @i128_extend(i64 %.sroa.011.0.i6, i64 %.sroa.6.0.i7, i32 noundef %5)
  br label %46

46:                                               ; preds = %i128_shl64.exit10, %i128_shl64.exit
  %.sink13 = phi { i64, i64 } [ %45, %i128_shl64.exit10 ], [ %28, %i128_shl64.exit ]
  %47 = extractvalue { i64, i64 } %.sink13, 0
  store i64 %47, ptr %0, align 8
  %48 = getelementptr inbounds nuw i8, ptr %0, i64 8
  %49 = extractvalue { i64, i64 } %.sink13, 1
  store i64 %49, ptr %48, align 8
  %50 = getelementptr inbounds nuw i8, ptr %0, i64 16
  store i32 %5, ptr %50, align 8
  ret void
}